; Function Attrs: mustprogress nounwind uwtable
define internal void @_ZN32pxrInternal_v0_24__pxrReserved__12_GLOBAL__N_120Js_PolymorphicWriterIN12_GLOBAL__N_110_WriterFixIN3pxr9rapidjson6WriterINS5_19BasicOStreamWrapperISoEENS5_4UTF8IcEESA_NS5_12CrtAllocatorELj0EEEEEED2Ev(ptr noundef nonnull readonly align 8 captures(none) dereferenceable(69) %0) unnamed_addr #4 align 2 personality ptr @__gxx_personality_v0 {
  %2 = getelementptr inbounds nuw i8, ptr %0, i64 32
  %3 = load ptr, ptr %2, align 8
  tail call void @free(ptr noundef %3) #24
  %4 = getelementptr inbounds nuw i8, ptr %0, i64 24
  %5 = load ptr, ptr %4, align 8
  %6 = icmp eq ptr %5, null
  br i1 %6, label %_ZN12_GLOBAL__N_110_WriterFixIN3pxr9rapidjson6WriterINS2_19BasicOStreamWrapperISoEENS2_4UTF8IcEES7_NS2_12CrtAllocatorELj0EEEED2Ev.exit, label %7

7:                                                ; preds = %1
  tail call void @_ZdlPvm(ptr noundef nonnull %5, i64 noundef 1) #25
  br label %_ZN12_GLOBAL__N_110_WriterFixIN3pxr9rapidjson6WriterINS2_19BasicOStreamWrapperISoEENS2_4UTF8IcEES7_NS2_12CrtAllocatorELj0EEEED2Ev.exit

_ZN12_GLOBAL__N_110_WriterFixIN3pxr9rapidjson6WriterINS2_19BasicOStreamWrapperISoEENS2_4UTF8IcEES7_NS2_12CrtAllocatorELj0EEEED2Ev.exit: ; preds = %1, %7
  ret void
}